target datalayout = "e-m:e-p270:32:32-p271:32:32-p272:64:64-i64:64-i128:128-f80:128-n8:16:32:64-S128"
target triple = "x86_64-pc-linux-gnu"

%struct._packet_info = type { ptr, ptr, i32, i32, %struct.nstime_t, %struct.nstime_t, %struct.nstime_t, i32, ptr, ptr, ptr, ptr, %struct._address, %struct._address, %struct._address, %struct._address, %struct._address, %struct._address, i32, ptr, i32, %struct.anon, i32, i32, i32, i32, ptr, i32, ptr, ptr, i16, i16, i32, i32, i16, i32, i32, ptr, ptr, ptr, i8, i8, i16, i16, i16, i32, i16, i16, ptr, ptr, ptr, ptr, ptr, i32 }
%struct.nstime_t = type { i64, i32 }
%struct._address = type { i32, i32, ptr, ptr }
%struct.anon = type { i8, [3 x i8] }

@.str.1040 = private unnamed_addr constant [26 x i8] c", Server Steelhead: %s:%u\00", align 1
@.str.1041 = private unnamed_addr constant [6 x i8] c"SA+, \00", align 1

; Function Attrs: nounwind uwtable
define internal void @rvbd_probe_resp_add_info(ptr noundef %0, ptr noundef %1, ptr noundef %2, i32 noundef %3, i16 noundef zeroext %4) #0 {
  %6 = alloca ptr, align 8
  %7 = alloca ptr, align 8
  %8 = alloca ptr, align 8
  %9 = alloca i32, align 4
  %10 = alloca i16, align 2
  store ptr %0, ptr %6, align 8
  store ptr %1, ptr %7, align 8
  store ptr %2, ptr %8, align 8
  store i32 %3, ptr %9, align 4
  store i16 %4, ptr %10, align 2
  %11 = load ptr, ptr %6, align 8
  %12 = load ptr, ptr %7, align 8
  %13 = getelementptr inbounds %struct._packet_info, ptr %12, i32 0, i32 50
  %14 = load ptr, ptr %13, align 8
  %15 = load ptr, ptr %8, align 8
  %16 = load i32, ptr %9, align 4
  %17 = call ptr @tvb_address_to_str(ptr noundef %14, ptr noundef %15, i32 noundef 2, i32 noundef %16)
  %18 = load i16, ptr %10, align 2
  %19 = zext i16 %18 to i32
  call void (ptr, ptr, ...) @proto_item_append_text(ptr noundef %11, ptr noundef @.str.1040, ptr noundef %17, i32 noundef %19)
  %20 = load ptr, ptr %7, align 8
  %21 = getelementptr inbounds %struct._packet_info, ptr %20, i32 0, i32 1
  %22 = load ptr, ptr %21, align 8
  call void (ptr, i32, ptr, ...) @col_prepend_fstr(ptr noundef %22, i32 noundef 25, ptr noundef @.str.1041)
  ret void
}