; Function Attrs: nounwind uwtable
define internal fastcc void @rvbd_probe_resp_add_info(ptr noundef %0, ptr noundef readonly captures(none) %1, ptr noundef %2, i32 noundef range(i32 8, 13) %3, i16 noundef zeroext %4) unnamed_addr #0 {
  %6 = getelementptr inbounds nuw i8, ptr %1, i64 408
  %7 = load ptr, ptr %6, align 8
  %8 = tail call ptr @tvb_address_to_str(ptr noundef %7, ptr noundef %2, i32 noundef 2, i32 noundef %3) #20
  %9 = zext i16 %4 to i32
  tail call void (ptr, ptr, ...) @proto_item_append_text(ptr noundef %0, ptr noundef nonnull @.str.1040, ptr noundef %8, i32 noundef %9) #20
  %10 = getelementptr inbounds nuw i8, ptr %1, i64 8
  %11 = load ptr, ptr %10, align 8
  tail call void (ptr, i32, ptr, ...) @col_prepend_fstr(ptr noundef %11, i32 noundef 25, ptr noundef nonnull @.str.1041) #20
  ret void
}